; Function Attrs: mustprogress uwtable
define hidden void @_ZN12old_intervalC2ER25scoped_dependency_managerIPvERK8rationalbPN18dependency_managerINS2_6configEE10dependencyES6_bSB_(ptr noundef nonnull align 8 dereferenceable(112) initializes((0, 12), (16, 20), (24, 36), (40, 48)) %0, ptr noundef nonnull align 8 dereferenceable(72) %1, ptr noundef nonnull align 8 dereferenceable(32) %2, i1 noundef zeroext %3, ptr noundef %4, ptr noundef nonnull align 8 dereferenceable(32) %5, i1 noundef zeroext %6, ptr noundef %7) unnamed_addr #3 align 2 personality ptr @__gxx_personality_v0 {
  store ptr %1, ptr %0, align 8, !tbaa !30
  %9 = getelementptr inbounds nuw i8, ptr %0, i64 8
  store i32 1, ptr %9, align 8, !tbaa !3
  %10 = getelementptr inbounds nuw i8, ptr %0, i64 16
  store i32 0, ptr %10, align 8, !tbaa !16
  %11 = getelementptr inbounds nuw i8, ptr %0, i64 20
  %12 = load i8, ptr %11, align 4
  %13 = and i8 %12, -4
  store i8 %13, ptr %11, align 4
  %14 = getelementptr inbounds nuw i8, ptr %0, i64 24
  store ptr null, ptr %14, align 8, !tbaa !20
  %15 = getelementptr inbounds nuw i8, ptr %0, i64 32
  store i32 1, ptr %15, align 8, !tbaa !16
  %16 = getelementptr inbounds nuw i8, ptr %0, i64 36
  %17 = load i8, ptr %16, align 4
  %18 = and i8 %17, -4
  store i8 %18, ptr %16, align 4
  %19 = getelementptr inbounds nuw i8, ptr %0, i64 40
  store ptr null, ptr %19, align 8, !tbaa !20
  %20 = load ptr, ptr @_ZN8rational13g_mpq_managerE, align 8, !tbaa !14
  %21 = getelementptr inbounds nuw i8, ptr %2, i64 4
  %22 = load i8, ptr %21, align 4
  %23 = and i8 %22, 1
  %24 = icmp eq i8 %23, 0
  br i1 %24, label %25, label %27

25:                                               ; preds = %8
  %26 = load i32, ptr %2, align 8, !tbaa !16
  store i32 %26, ptr %10, align 8, !tbaa !16
  store i8 %13, ptr %11, align 4
  br label %_ZN11mpq_managerILb1EE3setER3mpzRKS1_.exit.i.i.i

27:                                               ; preds = %8
  tail call void @_ZN11mpz_managerILb1EE7big_setER3mpzRKS1_(ptr noundef nonnull align 8 dereferenceable(728) %20, ptr noundef nonnull align 8 dereferenceable(32) %10, ptr noundef nonnull align 8 dereferenceable(32) %2)
  br label %_ZN11mpq_managerILb1EE3setER3mpzRKS1_.exit.i.i.i

_ZN11mpq_managerILb1EE3setER3mpzRKS1_.exit.i.i.i: ; preds = %27, %25
  %28 = getelementptr inbounds nuw i8, ptr %2, i64 16
  %29 = getelementptr inbounds nuw i8, ptr %2, i64 20
  %30 = load i8, ptr %29, align 4
  %31 = and i8 %30, 1
  %32 = icmp eq i8 %31, 0
  br i1 %32, label %33, label %37

33:                                               ; preds = %_ZN11mpq_managerILb1EE3setER3mpzRKS1_.exit.i.i.i
  %34 = load i32, ptr %28, align 8, !tbaa !16
  store i32 %34, ptr %15, align 8, !tbaa !16
  %35 = load i8, ptr %16, align 4
  %36 = and i8 %35, -2
  store i8 %36, ptr %16, align 4
  br label %_ZN11ext_numeralC2ERK8rational.exit

37:                                               ; preds = %_ZN11mpq_managerILb1EE3setER3mpzRKS1_.exit.i.i.i
  tail call void @_ZN11mpz_managerILb1EE7big_setER3mpzRKS1_(ptr noundef nonnull align 8 dereferenceable(728) %20, ptr noundef nonnull align 8 dereferenceable(16) %15, ptr noundef nonnull align 8 dereferenceable(16) %28)
  br label %_ZN11ext_numeralC2ERK8rational.exit

_ZN11ext_numeralC2ERK8rational.exit:              ; preds = %33, %37
  %38 = getelementptr inbounds nuw i8, ptr %0, i64 48
  store i32 1, ptr %38, align 8, !tbaa !3
  %39 = getelementptr inbounds nuw i8, ptr %0, i64 56
  store i32 0, ptr %39, align 8, !tbaa !16
  %40 = getelementptr inbounds nuw i8, ptr %0, i64 60
  %41 = load i8, ptr %40, align 4
  %42 = and i8 %41, -4
  store i8 %42, ptr %40, align 4
  %43 = getelementptr inbounds nuw i8, ptr %0, i64 64
  store ptr null, ptr %43, align 8, !tbaa !20
  %44 = getelementptr inbounds nuw i8, ptr %0, i64 72
  store i32 1, ptr %44, align 8, !tbaa !16
  %45 = getelementptr inbounds nuw i8, ptr %0, i64 76
  %46 = load i8, ptr %45, align 4
  %47 = and i8 %46, -4
  store i8 %47, ptr %45, align 4
  %48 = getelementptr inbounds nuw i8, ptr %0, i64 80
  store ptr null, ptr %48, align 8, !tbaa !20
  %49 = load ptr, ptr @_ZN8rational13g_mpq_managerE, align 8, !tbaa !14
  %50 = getelementptr inbounds nuw i8, ptr %5, i64 4
  %51 = load i8, ptr %50, align 4
  %52 = and i8 %51, 1
  %53 = icmp eq i8 %52, 0
  br i1 %53, label %54, label %56

54:                                               ; preds = %_ZN11ext_numeralC2ERK8rational.exit
  %55 = load i32, ptr %5, align 8, !tbaa !16
  store i32 %55, ptr %39, align 8, !tbaa !16
  store i8 %42, ptr %40, align 4
  br label %_ZN11mpq_managerILb1EE3setER3mpzRKS1_.exit.i.i.i9

56:                                               ; preds = %_ZN11ext_numeralC2ERK8rational.exit
  invoke void @_ZN11mpz_managerILb1EE7big_setER3mpzRKS1_(ptr noundef nonnull align 8 dereferenceable(728) %49, ptr noundef nonnull align 8 dereferenceable(32) %39, ptr noundef nonnull align 8 dereferenceable(32) %5)
          to label %_ZN11mpq_managerILb1EE3setER3mpzRKS1_.exit.i.i.i9 unwind label %73

_ZN11mpq_managerILb1EE3setER3mpzRKS1_.exit.i.i.i9: ; preds = %56, %54
  %57 = getelementptr inbounds nuw i8, ptr %5, i64 16
  %58 = getelementptr inbounds nuw i8, ptr %5, i64 20
  %59 = load i8, ptr %58, align 4
  %60 = and i8 %59, 1
  %61 = icmp eq i8 %60, 0
  br i1 %61, label %62, label %66

62:                                               ; preds = %_ZN11mpq_managerILb1EE3setER3mpzRKS1_.exit.i.i.i9
  %63 = load i32, ptr %57, align 8, !tbaa !16
  store i32 %63, ptr %44, align 8, !tbaa !16
  %64 = load i8, ptr %45, align 4
  %65 = and i8 %64, -2
  store i8 %65, ptr %45, align 4
  br label %_ZN11ext_numeralC2ERK8rational.exit11

66:                                               ; preds = %_ZN11mpq_managerILb1EE3setER3mpzRKS1_.exit.i.i.i9
  invoke void @_ZN11mpz_managerILb1EE7big_setER3mpzRKS1_(ptr noundef nonnull align 8 dereferenceable(728) %49, ptr noundef nonnull align 8 dereferenceable(16) %44, ptr noundef nonnull align 8 dereferenceable(16) %57)
          to label %_ZN11ext_numeralC2ERK8rational.exit11 unwind label %73

_ZN11ext_numeralC2ERK8rational.exit11:            ; preds = %62, %66
  %67 = zext i1 %6 to i8
  %68 = zext i1 %3 to i8
  %69 = getelementptr inbounds nuw i8, ptr %0, i64 88
  store i8 %68, ptr %69, align 8, !tbaa !32
  %70 = getelementptr inbounds nuw i8, ptr %0, i64 89
  store i8 %67, ptr %70, align 1, !tbaa !36
  %71 = getelementptr inbounds nuw i8, ptr %0, i64 96
  store ptr %4, ptr %71, align 8, !tbaa !37
  %72 = getelementptr inbounds nuw i8, ptr %0, i64 104
  store ptr %7, ptr %72, align 8, !tbaa !38
  ret void

73:                                               ; preds = %66, %56
  %74 = landingpad { ptr, i32 }
          cleanup
  tail call void @_ZN11ext_numeralD2Ev(ptr noundef nonnull align 8 dereferenceable(40) %9) #22
  resume { ptr, i32 } %74
}